; Function Attrs: mustprogress nounwind uwtable
define hidden noundef range(i32 0, 101) i32 @_ZN8JvmtiEnv17GetObjectHashCodeEP8_jobjectPi(ptr nocapture noundef nonnull readnone align 8 dereferenceable(460) %0, ptr noundef %1, ptr noundef writeonly %2) local_unnamed_addr #0 align 2 {
  %4 = tail call noundef ptr @_ZN10JNIHandles22resolve_external_guardEP8_jobject(ptr noundef %1) #17
  %5 = icmp eq ptr %4, null
  br i1 %5, label %22, label %6

6:                                                ; preds = %3
  %7 = icmp eq ptr %2, null
  br i1 %7, label %22, label %8

8:                                                ; preds = %6
  %9 = load volatile i64, ptr %4, align 8
  %10 = and i64 %9, 3
  switch i64 %10, label %.thread.i [
    i64 1, label %11
    i64 3, label %17
  ]

11:                                               ; preds = %8
  %12 = and i64 %9, 549755813632
  %13 = icmp eq i64 %12, 0
  br i1 %13, label %.thread.i, label %14

14:                                               ; preds = %11
  %15 = lshr i64 %9, 8
  %16 = and i64 %15, 2147483647
  br label %_ZN7oopDesc13identity_hashEv.exit

17:                                               ; preds = %8
  %18 = lshr i64 %9, 8
  %19 = and i64 %18, 2147483647
  br label %_ZN7oopDesc13identity_hashEv.exit

.thread.i:                                        ; preds = %11, %8
  %20 = tail call noundef i64 @_ZN7oopDesc18slow_identity_hashEv(ptr noundef nonnull align 8 dereferenceable(16) %4) #17
  br label %_ZN7oopDesc13identity_hashEv.exit

_ZN7oopDesc13identity_hashEv.exit:                ; preds = %14, %17, %.thread.i
  %.0.i = phi i64 [ %19, %17 ], [ %20, %.thread.i ], [ %16, %14 ]
  %21 = trunc i64 %.0.i to i32
  store i32 %21, ptr %2, align 4
  br label %22

22:                                               ; preds = %6, %3, %_ZN7oopDesc13identity_hashEv.exit
  %.0 = phi i32 [ 0, %_ZN7oopDesc13identity_hashEv.exit ], [ 20, %3 ], [ 100, %6 ]
  ret i32 %.0
}